(ibuildTools
Project
p0
(dp1
S'debugger'
p2
S'xcrun'
p3
sS'root'
p4
(ibuildTools
ProjectNode
p5
(dp6
S'usedByProjects'
p7
(lp8
sS'genfiles'
p9
(lp10
S''
p11
asS'qrcgenfiles'
p12
(lp13
g11
asS'mocgenfiles'
p14
(lp15
g11
asS'ipath'
p16
(lp17
S'.'
p18
aS'/Users/jimh/build/debug/metasrc'
p19
aS'/Users/jimh/git/tweak/src/lib/aja'
p20
aS'/Users/jimh/git/tweak/src/lib/app'
p21
aS'/Users/jimh/git/tweak/src/lib/arri'
p22
aS'/Users/jimh/git/tweak/src/lib/audio'
p23
aS'/Users/jimh/git/tweak/src/lib/base'
p24
aS'/Users/jimh/git/tweak/src/lib/blackmagic'
p25
aS'/Users/jimh/git/tweak/src/lib/files'
p26
aS'/Users/jimh/git/tweak/src/lib/geometry'
p27
aS'/Users/jimh/git/tweak/src/lib/graphics'
p28
aS'/Users/jimh/git/tweak/src/lib/image'
p29
aS'/Users/jimh/git/tweak/src/lib/ip'
p30
aS'/Users/jimh/git/tweak/src/lib/mu'
p31
aS'/Users/jimh/git/tweak/src/lib/network'
p32
aS'/Users/jimh/git/tweak/src/lib/nvidia'
p33
aS'/Users/jimh/git/tweak/src/lib/oiio'
p34
aS'/Users/jimh/git/tweak/src/lib/red'
p35
aS'/Users/jimh/git/tweak/src/lib/ui'
p36
aS'gc'
p37
aS'libatomic_ops-1.2/src'
p38
aS'/usr/local/Qt/Qt-5.3.1-dylibs-debug/include'
p39
aS'/usr/local/Qt/Qt-5.3.1-dylibs-debug/lib/QtCore.framework/Headers'
p40
aS'/usr/local/Qt/Qt-5.3.1-dylibs-debug/include'
p41
aS'/Users/jimh/git/tweak/src/pub/boost'
p42
asS'other'
p43
(dp44
S'METASRCS'
p45
(lp46
g11
asS'RVPKGPATHS'
p47
(lp48
g11
asS'FPATH'
p49
(lp50
S'/usr/local/Qt/Qt-5.3.1-dylibs-debug/lib'
p51
asS'SCRIPTS_DIR'
p52
(lp53
S'/Users/jimh/build/debug/scripts'
p54
asS'SYSTEM_LIBS'
p55
(lp56
S'z'
p57
aS'm'
p58
asS'SOURCE_LIBS'
p59
(lp60
g11
asS'METADEPFILES'
p61
(lp62
g11
assS'projectPaths'
p63
(lp64
g11
asS'objdir'
p65
S'/Users/jimh/build/debug/objects/gc'
p66
sS'type'
p67
S'LIBRARY'
p68
sS'systemLib'
p69
I0
sS'builtFromProjects'
p70
(lp71
sS'srcs'
p72
(lp73
S'allchblk.c'
p74
aS'alloc.c'
p75
aS'blacklst.c'
p76
aS'checksums.c'
p77
aS'dbg_mlc.c'
p78
aS'dyn_load.c'
p79
aS'finalize.c'
p80
aS'gc_dlopen.c'
p81
aS'gcj_mlc.c'
p82
aS'headers.c'
p83
aS'malloc.c'
p84
aS'mallocx.c'
p85
aS'mark.c'
p86
aS'mark_rts.c'
p87
aS'misc.c'
p88
aS'new_hblk.c'
p89
aS'obj_map.c'
p90
aS'os_dep.c'
p91
aS'pcr_interface.c'
p92
aS'ptr_chck.c'
p93
aS'real_malloc.c'
p94
aS'reclaim.c'
p95
aS'specific.c'
p96
aS'stubborn.c'
p97
aS'typd_mlc.c'
p98
aS'backgraph.c'
p99
aS'thread_local_alloc.c'
p100
aS'mach_dep.c'
p101
aS'pthread_support.c'
p102
aS'pthread_stop_world.c'
p103
aS'pthread_start.c'
p104
aS'darwin_stop_world.c'
p105
asS'existinglibs'
p106
(lp107
g11
asS'exported'
p108
(lp109
g11
asS'libs'
p110
(lp111
g11
asS'path'
p112
g18
sS'depfiles'
p113
(lp114
S'/Users/jimh/build/debug/objects/gc/allchblk.d'
p115
aS'/Users/jimh/build/debug/objects/gc/alloc.d'
p116
aS'/Users/jimh/build/debug/objects/gc/blacklst.d'
p117
aS'/Users/jimh/build/debug/objects/gc/checksums.d'
p118
aS'/Users/jimh/build/debug/objects/gc/dbg_mlc.d'
p119
aS'/Users/jimh/build/debug/objects/gc/dyn_load.d'
p120
aS'/Users/jimh/build/debug/objects/gc/finalize.d'
p121
aS'/Users/jimh/build/debug/objects/gc/gc_dlopen.d'
p122
aS'/Users/jimh/build/debug/objects/gc/gcj_mlc.d'
p123
aS'/Users/jimh/build/debug/objects/gc/headers.d'
p124
aS'/Users/jimh/build/debug/objects/gc/malloc.d'
p125
aS'/Users/jimh/build/debug/objects/gc/mallocx.d'
p126
aS'/Users/jimh/build/debug/objects/gc/mark.d'
p127
aS'/Users/jimh/build/debug/objects/gc/mark_rts.d'
p128
aS'/Users/jimh/build/debug/objects/gc/misc.d'
p129
aS'/Users/jimh/build/debug/objects/gc/new_hblk.d'
p130
aS'/Users/jimh/build/debug/objects/gc/obj_map.d'
p131
aS'/Users/jimh/build/debug/objects/gc/os_dep.d'
p132
aS'/Users/jimh/build/debug/objects/gc/pcr_interface.d'
p133
aS'/Users/jimh/build/debug/objects/gc/ptr_chck.d'
p134
aS'/Users/jimh/build/debug/objects/gc/real_malloc.d'
p135
aS'/Users/jimh/build/debug/objects/gc/reclaim.d'
p136
aS'/Users/jimh/build/debug/objects/gc/specific.d'
p137
aS'/Users/jimh/build/debug/objects/gc/stubborn.d'
p138
aS'/Users/jimh/build/debug/objects/gc/typd_mlc.d'
p139
aS'/Users/jimh/build/debug/objects/gc/backgraph.d'
p140
aS'/Users/jimh/build/debug/objects/gc/thread_local_alloc.d'
p141
aS'/Users/jimh/build/debug/objects/gc/mach_dep.d'
p142
aS'/Users/jimh/build/debug/objects/gc/pthread_support.d'
p143
aS'/Users/jimh/build/debug/objects/gc/pthread_stop_world.d'
p144
aS'/Users/jimh/build/debug/objects/gc/pthread_start.d'
p145
aS'/Users/jimh/build/debug/objects/gc/darwin_stop_world.d'
p146
asS'target'
p147
S'/Users/jimh/build/debug/lib/libgc.a'
p148
sS'linktype'
p149
(lp150
g11
asS'lpath'
p151
(lp152
S'/Users/jimh/build/debug/lib'
p153
aS'/usr/local/Qt/Qt-5.3.1-dylibs-debug/lib'
p154
aS'/usr/local/Qt/Qt-5.3.1-dylibs-debug/plugins/accessible'
p155
aS'/usr/local/Qt/Qt-5.3.1-dylibs-debug/plugins/audio'
p156
aS'/usr/local/Qt/Qt-5.3.1-dylibs-debug/plugins/bearer'
p157
aS'/usr/local/Qt/Qt-5.3.1-dylibs-debug/plugins/designer'
p158
aS'/usr/local/Qt/Qt-5.3.1-dylibs-debug/plugins/iconengines'
p159
aS'/usr/local/Qt/Qt-5.3.1-dylibs-debug/plugins/imageformats'
p160
aS'/usr/local/Qt/Qt-5.3.1-dylibs-debug/plugins/mediaservice'
p161
aS'/usr/local/Qt/Qt-5.3.1-dylibs-debug/plugins/platforms'
p162
aS'/usr/local/Qt/Qt-5.3.1-dylibs-debug/plugins/playlistformats'
p163
aS'/usr/local/Qt/Qt-5.3.1-dylibs-debug/plugins/position'
p164
aS'/usr/local/Qt/Qt-5.3.1-dylibs-debug/plugins/printsupport'
p165
aS'/usr/local/Qt/Qt-5.3.1-dylibs-debug/plugins/qml1tooling'
p166
aS'/usr/local/Qt/Qt-5.3.1-dylibs-debug/plugins/qmltooling'
p167
aS'/usr/local/Qt/Qt-5.3.1-dylibs-debug/plugins/sensorgestures'
p168
aS'/usr/local/Qt/Qt-5.3.1-dylibs-debug/plugins/sensors'
p169
aS'/usr/local/Qt/Qt-5.3.1-dylibs-debug/plugins/sqldrivers'
p170
aS'/usr/local/Qt/Qt-5.3.1-dylibs-debug/qml/Enginio'
p171
aS'/usr/local/Qt/Qt-5.3.1-dylibs-debug/qml/Qt'
p172
aS'/usr/local/Qt/Qt-5.3.1-dylibs-debug/qml/QtAudioEngine'
p173
aS'/usr/local/Qt/Qt-5.3.1-dylibs-debug/qml/QtBluetooth'
p174
aS'/usr/local/Qt/Qt-5.3.1-dylibs-debug/qml/QtGraphicalEffects'
p175
aS'/usr/local/Qt/Qt-5.3.1-dylibs-debug/qml/QtMultimedia'
p176
aS'/usr/local/Qt/Qt-5.3.1-dylibs-debug/qml/QtNfc'
p177
aS'/usr/local/Qt/Qt-5.3.1-dylibs-debug/qml/QtPositioning'
p178
aS'/usr/local/Qt/Qt-5.3.1-dylibs-debug/qml/QtQml'
p179
aS'/usr/local/Qt/Qt-5.3.1-dylibs-debug/qml/QtQuick.2'
p180
aS'/usr/local/Qt/Qt-5.3.1-dylibs-debug/qml/QtSensors'
p181
aS'/usr/local/Qt/Qt-5.3.1-dylibs-debug/qml/QtTest'
p182
aS'/usr/local/Qt/Qt-5.3.1-dylibs-debug/qml/QtQml/Models.2'
p183
aS'/usr/local/Qt/Qt-5.3.1-dylibs-debug/qml/Qt/labs/settings'
p184
aS'/usr/local/Qt/Qt-5.3.1-dylibs-debug/qml/Qt/labs/folderlistmodel'
p185
aS'/usr/local/Qt/Qt-5.3.1-dylibs-debug/qml/QtQuick/Controls'
p186
aS'/usr/local/Qt/Qt-5.3.1-dylibs-debug/qml/QtQuick/Dialogs'
p187
aS'/usr/local/Qt/Qt-5.3.1-dylibs-debug/qml/QtQuick/Layouts'
p188
aS'/usr/local/Qt/Qt-5.3.1-dylibs-debug/qml/QtQuick/LocalStorage'
p189
aS'/usr/local/Qt/Qt-5.3.1-dylibs-debug/qml/QtQuick/Particles.2'
p190
aS'/usr/local/Qt/Qt-5.3.1-dylibs-debug/qml/QtQuick/PrivateWidgets'
p191
aS'/usr/local/Qt/Qt-5.3.1-dylibs-debug/qml/QtQuick/Window.2'
p192
aS'/usr/local/Qt/Qt-5.3.1-dylibs-debug/qml/QtQuick/XmlListModel'
p193
aS'/usr/local/Qt/Qt-5.3.1-dylibs-debug/lib'
p194
asS'name'
p195
S'gc'
p196
sS'modulePaths'
p197
(lp198
g11
asS'modules'
p199
(lp200
g11
asS'qtresources'
p201
(lp202
g11
asS'project'
p203
g0
sS'frameworks'
p204
(lp205
g11
asS'qttype'
p206
(lp207
g11
asbsS'build_root'
p208
S'/Users/jimh/build/debug'
p209
sg199
(lp210
sg195
S'ROOT PROJECT'
p211
sS'platform'
p212
S'DARWIN'
p213
sg43
(dp214
S'COMPILER'
p215
(lp216
S'CLANG'
p217
assS'src_root'
p218
S'/Users/jimh/git/tweak/src'
p219
sS'make_root'
p220
S'/Users/jimh/git/tweak/src/build'
p221
sg112
g18
sS'arch'
p222
S'IA32_64'
p223
sS'cvsroot'
p224
S'environment'
p225
sS'compiler'
p226
g217
sb.