(ibuildTools
Project
p0
(dp1
S'debugger'
p2
S'xcrun'
p3
sS'root'
p4
(ibuildTools
ProjectNode
p5
(dp6
S'usedByProjects'
p7
(lp8
sS'genfiles'
p9
(lp10
S''
p11
asS'qrcgenfiles'
p12
(lp13
g11
asS'mocgenfiles'
p14
(lp15
g11
asS'ipath'
p16
(lp17
S'.'
p18
aS'/Users/jimh/build/debug/metasrc'
p19
aS'/Users/jimh/git/tweak/src/lib/aja'
p20
aS'/Users/jimh/git/tweak/src/lib/app'
p21
aS'/Users/jimh/git/tweak/src/lib/arri'
p22
aS'/Users/jimh/git/tweak/src/lib/audio'
p23
aS'/Users/jimh/git/tweak/src/lib/base'
p24
aS'/Users/jimh/git/tweak/src/lib/blackmagic'
p25
aS'/Users/jimh/git/tweak/src/lib/files'
p26
aS'/Users/jimh/git/tweak/src/lib/geometry'
p27
aS'/Users/jimh/git/tweak/src/lib/graphics'
p28
aS'/Users/jimh/git/tweak/src/lib/image'
p29
aS'/Users/jimh/git/tweak/src/lib/ip'
p30
aS'/Users/jimh/git/tweak/src/lib/mu'
p31
aS'/Users/jimh/git/tweak/src/lib/network'
p32
aS'/Users/jimh/git/tweak/src/lib/nvidia'
p33
aS'/Users/jimh/git/tweak/src/lib/oiio'
p34
aS'/Users/jimh/git/tweak/src/lib/qt'
p35
aS'/Users/jimh/git/tweak/src/lib/red'
p36
aS'/Users/jimh/git/tweak/src/lib/ui'
p37
aS'/Users/jimh/git/tweak/src/Iex/IlmBaseConfig'
p38
aS'/usr/local/Qt/Qt-5.3.1-dylibs-debug/include'
p39
aS'/usr/local/Qt/Qt-5.3.1-dylibs-debug/lib/QtCore.framework/Headers'
p40
aS'/usr/local/Qt/Qt-5.3.1-dylibs-debug/include'
p41
aS'/Users/jimh/git/tweak/src/pub/boost'
p42
asS'other'
p43
(dp44
S'METASRCS'
p45
(lp46
g11
asS'RVPKGPATHS'
p47
(lp48
g11
asS'FPATH'
p49
(lp50
S'/usr/local/Qt/Qt-5.3.1-dylibs-debug/lib'
p51
asS'SCRIPTS_DIR'
p52
(lp53
S'/Users/jimh/build/debug/scripts'
p54
asS'SYSTEM_LIBS'
p55
(lp56
S'z'
p57
aS'm'
p58
asS'SOURCE_LIBS'
p59
(lp60
g11
asS'METADEPFILES'
p61
(lp62
g11
assS'projectPaths'
p63
(lp64
g11
asS'objdir'
p65
S'/Users/jimh/build/debug/objects/Half'
p66
sS'type'
p67
S'SHARED_LIBRARY'
p68
sS'systemLib'
p69
I0
sS'builtFromProjects'
p70
(lp71
sS'srcs'
p72
(lp73
S'half.cpp'
p74
asS'existinglibs'
p75
(lp76
g11
asS'exported'
p77
(lp78
g11
asS'libs'
p79
(lp80
g11
asS'path'
p81
g18
sS'depfiles'
p82
(lp83
S'/Users/jimh/build/debug/objects/Half/half.d'
p84
asS'target'
p85
S'/Users/jimh/build/debug/lib/libHalf.dylib'
p86
sS'linktype'
p87
(lp88
g11
asS'lpath'
p89
(lp90
S'/Users/jimh/build/debug/lib'
p91
aS'/usr/local/Qt/Qt-5.3.1-dylibs-debug/lib'
p92
aS'/usr/local/Qt/Qt-5.3.1-dylibs-debug/plugins/accessible'
p93
aS'/usr/local/Qt/Qt-5.3.1-dylibs-debug/plugins/audio'
p94
aS'/usr/local/Qt/Qt-5.3.1-dylibs-debug/plugins/bearer'
p95
aS'/usr/local/Qt/Qt-5.3.1-dylibs-debug/plugins/designer'
p96
aS'/usr/local/Qt/Qt-5.3.1-dylibs-debug/plugins/iconengines'
p97
aS'/usr/local/Qt/Qt-5.3.1-dylibs-debug/plugins/imageformats'
p98
aS'/usr/local/Qt/Qt-5.3.1-dylibs-debug/plugins/mediaservice'
p99
aS'/usr/local/Qt/Qt-5.3.1-dylibs-debug/plugins/platforms'
p100
aS'/usr/local/Qt/Qt-5.3.1-dylibs-debug/plugins/playlistformats'
p101
aS'/usr/local/Qt/Qt-5.3.1-dylibs-debug/plugins/position'
p102
aS'/usr/local/Qt/Qt-5.3.1-dylibs-debug/plugins/printsupport'
p103
aS'/usr/local/Qt/Qt-5.3.1-dylibs-debug/plugins/qml1tooling'
p104
aS'/usr/local/Qt/Qt-5.3.1-dylibs-debug/plugins/qmltooling'
p105
aS'/usr/local/Qt/Qt-5.3.1-dylibs-debug/plugins/sensorgestures'
p106
aS'/usr/local/Qt/Qt-5.3.1-dylibs-debug/plugins/sensors'
p107
aS'/usr/local/Qt/Qt-5.3.1-dylibs-debug/plugins/sqldrivers'
p108
aS'/usr/local/Qt/Qt-5.3.1-dylibs-debug/qml/Enginio'
p109
aS'/usr/local/Qt/Qt-5.3.1-dylibs-debug/qml/Qt'
p110
aS'/usr/local/Qt/Qt-5.3.1-dylibs-debug/qml/QtAudioEngine'
p111
aS'/usr/local/Qt/Qt-5.3.1-dylibs-debug/qml/QtBluetooth'
p112
aS'/usr/local/Qt/Qt-5.3.1-dylibs-debug/qml/QtGraphicalEffects'
p113
aS'/usr/local/Qt/Qt-5.3.1-dylibs-debug/qml/QtMultimedia'
p114
aS'/usr/local/Qt/Qt-5.3.1-dylibs-debug/qml/QtNfc'
p115
aS'/usr/local/Qt/Qt-5.3.1-dylibs-debug/qml/QtPositioning'
p116
aS'/usr/local/Qt/Qt-5.3.1-dylibs-debug/qml/QtQml'
p117
aS'/usr/local/Qt/Qt-5.3.1-dylibs-debug/qml/QtQuick.2'
p118
aS'/usr/local/Qt/Qt-5.3.1-dylibs-debug/qml/QtSensors'
p119
aS'/usr/local/Qt/Qt-5.3.1-dylibs-debug/qml/QtTest'
p120
aS'/usr/local/Qt/Qt-5.3.1-dylibs-debug/qml/QtQml/Models.2'
p121
aS'/usr/local/Qt/Qt-5.3.1-dylibs-debug/qml/Qt/labs/settings'
p122
aS'/usr/local/Qt/Qt-5.3.1-dylibs-debug/qml/Qt/labs/folderlistmodel'
p123
aS'/usr/local/Qt/Qt-5.3.1-dylibs-debug/qml/QtQuick/Controls'
p124
aS'/usr/local/Qt/Qt-5.3.1-dylibs-debug/qml/QtQuick/Dialogs'
p125
aS'/usr/local/Qt/Qt-5.3.1-dylibs-debug/qml/QtQuick/Layouts'
p126
aS'/usr/local/Qt/Qt-5.3.1-dylibs-debug/qml/QtQuick/LocalStorage'
p127
aS'/usr/local/Qt/Qt-5.3.1-dylibs-debug/qml/QtQuick/Particles.2'
p128
aS'/usr/local/Qt/Qt-5.3.1-dylibs-debug/qml/QtQuick/PrivateWidgets'
p129
aS'/usr/local/Qt/Qt-5.3.1-dylibs-debug/qml/QtQuick/Window.2'
p130
aS'/usr/local/Qt/Qt-5.3.1-dylibs-debug/qml/QtQuick/XmlListModel'
p131
aS'/usr/local/Qt/Qt-5.3.1-dylibs-debug/lib'
p132
asS'name'
p133
S'Half'
p134
sS'modulePaths'
p135
(lp136
g11
asS'modules'
p137
(lp138
g11
asS'qtresources'
p139
(lp140
g11
asS'project'
p141
g0
sS'frameworks'
p142
(lp143
g11
asS'qttype'
p144
(lp145
g11
asbsS'build_root'
p146
S'/Users/jimh/build/debug'
p147
sg137
(lp148
sg133
S'ROOT PROJECT'
p149
sS'platform'
p150
S'DARWIN'
p151
sg43
(dp152
S'COMPILER'
p153
(lp154
S'CLANG'
p155
assS'src_root'
p156
S'/Users/jimh/git/tweak/src'
p157
sS'make_root'
p158
S'/Users/jimh/git/tweak/src/build'
p159
sg81
g18
sS'arch'
p160
S'IA32_64'
p161
sS'cvsroot'
p162
S'environment'
p163
sS'compiler'
p164
g155
sb.