(ibuildTools
Project
p0
(dp1
S'debugger'
p2
S'xcrun'
p3
sS'root'
p4
(ibuildTools
ProjectNode
p5
(dp6
S'usedByProjects'
p7
(lp8
sS'genfiles'
p9
(lp10
S''
p11
asS'qrcgenfiles'
p12
(lp13
g11
asS'mocgenfiles'
p14
(lp15
g11
asS'ipath'
p16
(lp17
S'.'
p18
aS'/Users/jimh/build/debug/metasrc'
p19
aS'/Users/jimh/git/tweak/src/lib/aja'
p20
aS'/Users/jimh/git/tweak/src/lib/app'
p21
aS'/Users/jimh/git/tweak/src/lib/arri'
p22
aS'/Users/jimh/git/tweak/src/lib/audio'
p23
aS'/Users/jimh/git/tweak/src/lib/base'
p24
aS'/Users/jimh/git/tweak/src/lib/blackmagic'
p25
aS'/Users/jimh/git/tweak/src/lib/files'
p26
aS'/Users/jimh/git/tweak/src/lib/geometry'
p27
aS'/Users/jimh/git/tweak/src/lib/graphics'
p28
aS'/Users/jimh/git/tweak/src/lib/image'
p29
aS'/Users/jimh/git/tweak/src/lib/ip'
p30
aS'/Users/jimh/git/tweak/src/lib/mu'
p31
aS'/Users/jimh/git/tweak/src/lib/network'
p32
aS'/Users/jimh/git/tweak/src/lib/nvidia'
p33
aS'/Users/jimh/git/tweak/src/lib/oiio'
p34
aS'/Users/jimh/git/tweak/src/lib/red'
p35
aS'/Users/jimh/git/tweak/src/lib/ui'
p36
aS'/usr/local/Qt/Qt-5.3.1-dylibs-debug/include'
p37
aS'/usr/local/Qt/Qt-5.3.1-dylibs-debug/lib/QtCore.framework/Headers'
p38
aS'/usr/local/Qt/Qt-5.3.1-dylibs-debug/include'
p39
aS'/Users/jimh/git/tweak/src/pub/boost'
p40
asS'other'
p41
(dp42
S'METASRCS'
p43
(lp44
g11
asS'RVPKGPATHS'
p45
(lp46
g11
asS'FPATH'
p47
(lp48
S'/usr/local/Qt/Qt-5.3.1-dylibs-debug/lib'
p49
asS'SCRIPTS_DIR'
p50
(lp51
S'/Users/jimh/build/debug/scripts'
p52
asS'SYSTEM_LIBS'
p53
(lp54
S'z'
p55
aS'm'
p56
asS'SOURCE_LIBS'
p57
(lp58
g11
asS'METADEPFILES'
p59
(lp60
g11
assS'projectPaths'
p61
(lp62
g11
asS'objdir'
p63
S'/Users/jimh/build/debug/objects/eigen'
p64
sS'type'
p65
S'LIBRARY'
p66
sS'systemLib'
p67
I0
sS'builtFromProjects'
p68
(lp69
sS'srcs'
p70
(lp71
S'stub.c'
p72
asS'existinglibs'
p73
(lp74
g11
asS'exported'
p75
(lp76
g11
asS'libs'
p77
(lp78
g11
asS'path'
p79
g18
sS'depfiles'
p80
(lp81
S'/Users/jimh/build/debug/objects/eigen/stub.d'
p82
asS'target'
p83
S'/Users/jimh/build/debug/lib/libeigen.a'
p84
sS'linktype'
p85
(lp86
g11
asS'lpath'
p87
(lp88
S'/Users/jimh/build/debug/lib'
p89
aS'/usr/local/Qt/Qt-5.3.1-dylibs-debug/lib'
p90
aS'/usr/local/Qt/Qt-5.3.1-dylibs-debug/plugins/accessible'
p91
aS'/usr/local/Qt/Qt-5.3.1-dylibs-debug/plugins/audio'
p92
aS'/usr/local/Qt/Qt-5.3.1-dylibs-debug/plugins/bearer'
p93
aS'/usr/local/Qt/Qt-5.3.1-dylibs-debug/plugins/designer'
p94
aS'/usr/local/Qt/Qt-5.3.1-dylibs-debug/plugins/iconengines'
p95
aS'/usr/local/Qt/Qt-5.3.1-dylibs-debug/plugins/imageformats'
p96
aS'/usr/local/Qt/Qt-5.3.1-dylibs-debug/plugins/mediaservice'
p97
aS'/usr/local/Qt/Qt-5.3.1-dylibs-debug/plugins/platforms'
p98
aS'/usr/local/Qt/Qt-5.3.1-dylibs-debug/plugins/playlistformats'
p99
aS'/usr/local/Qt/Qt-5.3.1-dylibs-debug/plugins/position'
p100
aS'/usr/local/Qt/Qt-5.3.1-dylibs-debug/plugins/printsupport'
p101
aS'/usr/local/Qt/Qt-5.3.1-dylibs-debug/plugins/qml1tooling'
p102
aS'/usr/local/Qt/Qt-5.3.1-dylibs-debug/plugins/qmltooling'
p103
aS'/usr/local/Qt/Qt-5.3.1-dylibs-debug/plugins/sensorgestures'
p104
aS'/usr/local/Qt/Qt-5.3.1-dylibs-debug/plugins/sensors'
p105
aS'/usr/local/Qt/Qt-5.3.1-dylibs-debug/plugins/sqldrivers'
p106
aS'/usr/local/Qt/Qt-5.3.1-dylibs-debug/qml/Enginio'
p107
aS'/usr/local/Qt/Qt-5.3.1-dylibs-debug/qml/Qt'
p108
aS'/usr/local/Qt/Qt-5.3.1-dylibs-debug/qml/QtAudioEngine'
p109
aS'/usr/local/Qt/Qt-5.3.1-dylibs-debug/qml/QtBluetooth'
p110
aS'/usr/local/Qt/Qt-5.3.1-dylibs-debug/qml/QtGraphicalEffects'
p111
aS'/usr/local/Qt/Qt-5.3.1-dylibs-debug/qml/QtMultimedia'
p112
aS'/usr/local/Qt/Qt-5.3.1-dylibs-debug/qml/QtNfc'
p113
aS'/usr/local/Qt/Qt-5.3.1-dylibs-debug/qml/QtPositioning'
p114
aS'/usr/local/Qt/Qt-5.3.1-dylibs-debug/qml/QtQml'
p115
aS'/usr/local/Qt/Qt-5.3.1-dylibs-debug/qml/QtQuick.2'
p116
aS'/usr/local/Qt/Qt-5.3.1-dylibs-debug/qml/QtSensors'
p117
aS'/usr/local/Qt/Qt-5.3.1-dylibs-debug/qml/QtTest'
p118
aS'/usr/local/Qt/Qt-5.3.1-dylibs-debug/qml/QtQml/Models.2'
p119
aS'/usr/local/Qt/Qt-5.3.1-dylibs-debug/qml/Qt/labs/settings'
p120
aS'/usr/local/Qt/Qt-5.3.1-dylibs-debug/qml/Qt/labs/folderlistmodel'
p121
aS'/usr/local/Qt/Qt-5.3.1-dylibs-debug/qml/QtQuick/Controls'
p122
aS'/usr/local/Qt/Qt-5.3.1-dylibs-debug/qml/QtQuick/Dialogs'
p123
aS'/usr/local/Qt/Qt-5.3.1-dylibs-debug/qml/QtQuick/Layouts'
p124
aS'/usr/local/Qt/Qt-5.3.1-dylibs-debug/qml/QtQuick/LocalStorage'
p125
aS'/usr/local/Qt/Qt-5.3.1-dylibs-debug/qml/QtQuick/Particles.2'
p126
aS'/usr/local/Qt/Qt-5.3.1-dylibs-debug/qml/QtQuick/PrivateWidgets'
p127
aS'/usr/local/Qt/Qt-5.3.1-dylibs-debug/qml/QtQuick/Window.2'
p128
aS'/usr/local/Qt/Qt-5.3.1-dylibs-debug/qml/QtQuick/XmlListModel'
p129
aS'/usr/local/Qt/Qt-5.3.1-dylibs-debug/lib'
p130
asS'name'
p131
S'eigen'
p132
sS'modulePaths'
p133
(lp134
g11
asS'modules'
p135
(lp136
g11
asS'qtresources'
p137
(lp138
g11
asS'project'
p139
g0
sS'frameworks'
p140
(lp141
g11
asS'qttype'
p142
(lp143
g11
asbsS'build_root'
p144
S'/Users/jimh/build/debug'
p145
sg135
(lp146
sg131
S'ROOT PROJECT'
p147
sS'platform'
p148
S'DARWIN'
p149
sg41
(dp150
S'COMPILER'
p151
(lp152
S'CLANG'
p153
assS'src_root'
p154
S'/Users/jimh/git/tweak/src'
p155
sS'make_root'
p156
S'/Users/jimh/git/tweak/src/build'
p157
sg79
g18
sS'arch'
p158
S'IA32_64'
p159
sS'cvsroot'
p160
S'environment'
p161
sS'compiler'
p162
g153
sb.